; Function Attrs: mustprogress nofree norecurse nosync nounwind willreturn memory(argmem: read) uwtable
define <2 x float> @_ZNK15b2DistanceJoint16GetReactionForceEf(ptr nocapture noundef nonnull readonly align 8 dereferenceable(260) %this, float noundef %inv_dt) unnamed_addr #7 align 2 {
entry:
  %m_impulse = getelementptr inbounds i8, ptr %this, i64 172
  %0 = load float, ptr %m_impulse, align 4
  %m_lowerImpulse = getelementptr inbounds i8, ptr %this, i64 176
  %1 = load float, ptr %m_lowerImpulse, align 8
  %add = fadd float %0, %1
  %m_upperImpulse = getelementptr inbounds i8, ptr %this, i64 180
  %2 = load float, ptr %m_upperImpulse, align 4
  %sub = fsub float %add, %2
  %mul = fmul float %sub, %inv_dt
  %m_u = getelementptr inbounds i8, ptr %this, i64 192
  %3 = load <2 x float>, ptr %m_u, align 8
  %4 = insertelement <2 x float> poison, float %mul, i64 0
  %5 = shufflevector <2 x float> %4, <2 x float> poison, <2 x i32> zeroinitializer
  %6 = fmul <2 x float> %3, %5
  ret <2 x float> %6
}